target datalayout = "e-m:e-p270:32:32-p271:32:32-p272:64:64-i64:64-i128:128-f80:128-n8:16:32:64-S128"
target triple = "x86_64-pc-linux-gnu"

%struct._VAConfigAttrib = type { i32, i32 }
%struct.AVCodecContext = type { ptr, i32, i32, ptr, i32, i32, ptr, ptr, ptr, i64, i32, i32, ptr, i32, %struct.AVRational, %struct.AVRational, %struct.AVRational, i32, i32, i32, i32, i32, %struct.AVRational, i32, i32, i32, i32, i32, i32, i32, i32, i32, i32, i32, ptr, ptr, i32, float, float, float, float, float, float, float, float, float, i32, i32, i32, i32, i32, i32, i32, i32, i32, i32, i32, i32, ptr, ptr, ptr, i32, i32, i32, i32, i32, i32, i32, i32, i32, i32, %struct.AVChannelLayout, i32, i32, i32, i32, i32, i32, i32, i32, ptr, i32, i32, i32, float, float, i32, i32, i32, i32, i32, ptr, i64, i64, float, float, i32, i32, ptr, ptr, i32, i32, i32, i32, i32, ptr, ptr, ptr, ptr, i32, i32, [8 x i64], i32, i32, i32, i32, i32, i32, i32, ptr, ptr, i32, i32, i32, i32, i32, i32, i32, i32, i32, i32, ptr, ptr, i32, i32, ptr, ptr, ptr, ptr, i32, i32, i64, i32, i32, i64, ptr, i64, ptr, i32, ptr, i32 }
%struct.AVRational = type { i32, i32 }
%struct.AVChannelLayout = type { i32, i32, %union.anon, ptr }
%union.anon = type { i64 }
%struct.VAAPIEncodeContext = type { %struct.FFHWBaseEncodeContext, ptr, i32, i32, i32, i32, i32, i32, ptr, ptr, i32, i32, i32, i32, i32, i32, [4 x %struct._VAConfigAttrib], i32, i32, i32, ptr, ptr, [4 x i32], [4 x ptr], [4 x i64], i32, %struct._VAEncMiscParameterRateControl, %struct._VAEncMiscParameterHRD, %struct._VAEncMiscParameterFrameRate, %struct._VAEncMiscParameterBufferMaxFrameSize, %struct._VAEncMiscParameterBufferQualityLevel, ptr, ptr, i32, i32, i32, i32, i32, i32, [20 x i32], [22 x i32], [21 x i32], [23 x i32], i32, i32, ptr, i32, i32 }
%struct.FFHWBaseEncodeContext = type { ptr, ptr, ptr, i32, i32, i32, i32, i32, i32, ptr, ptr, ptr, ptr, ptr, ptr, ptr, ptr, [2 x ptr], i32, i64, i64, i64, i64, i64, i64, i64, [112 x i64], i32, i32, i32, i32, i32, i32, i32, i32, i32, i32, i32, i32, i32, i32, i32, i32, ptr, i32, ptr, i32, ptr }
%struct._VAEncMiscParameterRateControl = type { i32, i32, i32, i32, i32, i32, %union.anon.0, i32, i32, i32, i32, [4 x i32] }
%union.anon.0 = type { %struct.anon }
%struct.anon = type { i32 }
%struct._VAEncMiscParameterHRD = type { i32, i32, [4 x i32] }
%struct._VAEncMiscParameterFrameRate = type { i32, %union.anon.1, [4 x i32] }
%union.anon.1 = type { %struct.anon.2 }
%struct.anon.2 = type { i32 }
%struct._VAEncMiscParameterBufferMaxFrameSize = type { i32, i32, [4 x i32] }
%struct._VAEncMiscParameterBufferQualityLevel = type { i32, [4 x i32] }

@.str.10 = private unnamed_addr constant [30 x i8] c"Assertion %s failed at %s:%d\0A\00", align 1
@.str.12 = private unnamed_addr constant [26 x i8] c"libavcodec/vaapi_encode.c\00", align 1
@.str.122 = private unnamed_addr constant [42 x i8] c"ctx->nb_global_params < MAX_GLOBAL_PARAMS\00", align 1

; Function Attrs: cold nounwind optsize uwtable
define internal void @vaapi_encode_add_global_param(ptr noundef %0, i32 noundef %1, ptr noundef %2, i64 noundef %3) #2 {
  %5 = alloca ptr, align 8
  %6 = alloca i32, align 4
  %7 = alloca ptr, align 8
  %8 = alloca i64, align 8
  %9 = alloca ptr, align 8
  store ptr %0, ptr %5, align 8, !tbaa !4
  store i32 %1, ptr %6, align 4, !tbaa !37
  store ptr %2, ptr %7, align 8, !tbaa !108
  store i64 %3, ptr %8, align 8, !tbaa !102
  call void @llvm.lifetime.start.p0(i64 8, ptr %9) #10
  %10 = load ptr, ptr %5, align 8, !tbaa !4
  %11 = getelementptr inbounds nuw %struct.AVCodecContext, ptr %10, i32 0, i32 6
  %12 = load ptr, ptr %11, align 8, !tbaa !11
  store ptr %12, ptr %9, align 8, !tbaa !33
  br label %13

13:                                               ; preds = %4
  %14 = load ptr, ptr %9, align 8, !tbaa !33
  %15 = getelementptr inbounds nuw %struct.VAAPIEncodeContext, ptr %14, i32 0, i32 25
  %16 = load i32, ptr %15, align 8, !tbaa !263
  %17 = icmp slt i32 %16, 4
  br i1 %17, label %19, label %18

18:                                               ; preds = %13
  call void (ptr, i32, ptr, ...) @av_log(ptr noundef null, i32 noundef 0, ptr noundef @.str.10, ptr noundef @.str.122, ptr noundef @.str.12, i32 noundef 883)
  call void @abort() #12
  unreachable

19:                                               ; preds = %13
  br label %20

20:                                               ; preds = %19
  br label %21

21:                                               ; preds = %20
  %22 = load i32, ptr %6, align 4, !tbaa !37
  %23 = load ptr, ptr %9, align 8, !tbaa !33
  %24 = getelementptr inbounds nuw %struct.VAAPIEncodeContext, ptr %23, i32 0, i32 22
  %25 = load ptr, ptr %9, align 8, !tbaa !33
  %26 = getelementptr inbounds nuw %struct.VAAPIEncodeContext, ptr %25, i32 0, i32 25
  %27 = load i32, ptr %26, align 8, !tbaa !263
  %28 = sext i32 %27 to i64
  %29 = getelementptr inbounds [4 x i32], ptr %24, i64 0, i64 %28
  store i32 %22, ptr %29, align 4, !tbaa !37
  %30 = load ptr, ptr %7, align 8, !tbaa !108
  %31 = load ptr, ptr %9, align 8, !tbaa !33
  %32 = getelementptr inbounds nuw %struct.VAAPIEncodeContext, ptr %31, i32 0, i32 23
  %33 = load ptr, ptr %9, align 8, !tbaa !33
  %34 = getelementptr inbounds nuw %struct.VAAPIEncodeContext, ptr %33, i32 0, i32 25
  %35 = load i32, ptr %34, align 8, !tbaa !263
  %36 = sext i32 %35 to i64
  %37 = getelementptr inbounds [4 x ptr], ptr %32, i64 0, i64 %36
  store ptr %30, ptr %37, align 8, !tbaa !108
  %38 = load i64, ptr %8, align 8, !tbaa !102
  %39 = load ptr, ptr %9, align 8, !tbaa !33
  %40 = getelementptr inbounds nuw %struct.VAAPIEncodeContext, ptr %39, i32 0, i32 24
  %41 = load ptr, ptr %9, align 8, !tbaa !33
  %42 = getelementptr inbounds nuw %struct.VAAPIEncodeContext, ptr %41, i32 0, i32 25
  %43 = load i32, ptr %42, align 8, !tbaa !263
  %44 = sext i32 %43 to i64
  %45 = getelementptr inbounds [4 x i64], ptr %40, i64 0, i64 %44
  store i64 %38, ptr %45, align 8, !tbaa !102
  %46 = load ptr, ptr %9, align 8, !tbaa !33
  %47 = getelementptr inbounds nuw %struct.VAAPIEncodeContext, ptr %46, i32 0, i32 25
  %48 = load i32, ptr %47, align 8, !tbaa !263
  %49 = add nsw i32 %48, 1
  store i32 %49, ptr %47, align 8, !tbaa !263
  call void @llvm.lifetime.end.p0(i64 8, ptr %9) #10
  ret void
}