; Function Attrs: cold nounwind optsize uwtable
define internal fastcc void @vaapi_encode_add_global_param(ptr captures(none) %.32.val, i32 noundef range(i32 0, 7) %0, ptr noundef %1, i64 noundef range(i64 20, 61) %2) unnamed_addr #2 {
  %4 = getelementptr inbounds nuw i8, ptr %.32.val, i64 1408
  %5 = load i32, ptr %4, align 8, !tbaa !221
  %6 = icmp slt i32 %5, 4
  br i1 %6, label %8, label %7

7:                                                ; preds = %3
  tail call void (ptr, i32, ptr, ...) @av_log(ptr noundef null, i32 noundef 0, ptr noundef nonnull @.str.10, ptr noundef nonnull @.str.122, ptr noundef nonnull @.str.12, i32 noundef 883) #9
  tail call void @abort() #11
  unreachable

8:                                                ; preds = %3
  %9 = getelementptr inbounds nuw i8, ptr %.32.val, i64 1328
  %10 = sext i32 %5 to i64
  %11 = getelementptr inbounds [4 x i32], ptr %9, i64 0, i64 %10
  store i32 %0, ptr %11, align 4, !tbaa !109
  %12 = getelementptr inbounds nuw i8, ptr %.32.val, i64 1344
  %13 = load i32, ptr %4, align 8, !tbaa !221
  %14 = sext i32 %13 to i64
  %15 = getelementptr inbounds [4 x ptr], ptr %12, i64 0, i64 %14
  store ptr %1, ptr %15, align 8, !tbaa !98
  %16 = getelementptr inbounds nuw i8, ptr %.32.val, i64 1376
  %17 = getelementptr inbounds [4 x i64], ptr %16, i64 0, i64 %14
  store i64 %2, ptr %17, align 8, !tbaa !92
  %18 = add nsw i32 %13, 1
  store i32 %18, ptr %4, align 8, !tbaa !221
  ret void
}